target datalayout = "e-m:e-p270:32:32-p271:32:32-p272:64:64-i64:64-i128:128-f80:128-n8:16:32:64-S128"
target triple = "x86_64-pc-linux-gnu"

%struct.SResource = type { ptr, i8, i8, i32, i32, i32, i32, i32, ptr, %struct.UString }
%struct.UString = type { ptr, i32, i32 }
%class.IntResource = type <{ %struct.SResource, i32, [4 x i8] }>

; Function Attrs: mustprogress uwtable
define dso_local void @_ZN11IntResourceC2EP7SRBRootPKciPK7UStringR10UErrorCode(ptr noundef nonnull align 8 dereferenceable(60) %0, ptr noundef %1, ptr noundef %2, i32 noundef %3, ptr noundef %4, ptr noundef nonnull align 4 dereferenceable(4) %5) unnamed_addr #5 align 2 {
  %7 = alloca ptr, align 8
  %8 = alloca ptr, align 8
  %9 = alloca ptr, align 8
  %10 = alloca i32, align 4
  %11 = alloca ptr, align 8
  %12 = alloca ptr, align 8
  store ptr %0, ptr %7, align 8, !tbaa !85
  store ptr %1, ptr %8, align 8, !tbaa !39
  store ptr %2, ptr %9, align 8, !tbaa !41
  store i32 %3, ptr %10, align 4, !tbaa !23
  store ptr %4, ptr %11, align 8, !tbaa !42
  store ptr %5, ptr %12, align 8, !tbaa !44
  %13 = load ptr, ptr %7, align 8
  %14 = load ptr, ptr %8, align 8, !tbaa !39
  %15 = load ptr, ptr %9, align 8, !tbaa !41
  %16 = load ptr, ptr %11, align 8, !tbaa !42
  %17 = load ptr, ptr %12, align 8, !tbaa !44
  call void @_ZN9SResourceC2EP7SRBRootPKcaPK7UStringR10UErrorCode(ptr noundef nonnull align 8 dereferenceable(56) %13, ptr noundef %14, ptr noundef %15, i8 noundef signext 7, ptr noundef %16, ptr noundef nonnull align 4 dereferenceable(4) %17)
  store ptr getelementptr inbounds inrange(-16, 64) ({ [10 x ptr] }, ptr @_ZTV11IntResource, i32 0, i32 0, i32 2), ptr %13, align 8, !tbaa !26
  %18 = load i32, ptr %10, align 4, !tbaa !23
  %19 = getelementptr inbounds nuw %class.IntResource, ptr %13, i32 0, i32 1
  store i32 %18, ptr %19, align 8, !tbaa !87
  %20 = load i32, ptr %10, align 4, !tbaa !23
  %21 = and i32 %20, 268435455
  %22 = or i32 1879048192, %21
  %23 = getelementptr inbounds nuw %struct.SResource, ptr %13, i32 0, i32 3
  store i32 %22, ptr %23, align 4, !tbaa !33
  %24 = getelementptr inbounds nuw %struct.SResource, ptr %13, i32 0, i32 2
  store i8 1, ptr %24, align 1, !tbaa !32
  ret void
}