; Function Attrs: mustprogress uwtable
define dso_local void @_ZN11IntResourceC2EP7SRBRootPKciPK7UStringR10UErrorCode(ptr noundef nonnull align 8 dereferenceable(60) initializes((0, 10), (12, 40)) %0, ptr noundef %1, ptr noundef %2, i32 noundef %3, ptr noundef %4, ptr noundef nonnull align 4 dereferenceable(4) %5) unnamed_addr #7 align 2 {
  tail call void @_ZN9SResourceC2EP7SRBRootPKcaPK7UStringR10UErrorCode(ptr noundef nonnull align 8 dereferenceable(56) %0, ptr noundef %1, ptr noundef %2, i8 noundef signext 7, ptr noundef %4, ptr noundef nonnull align 4 dereferenceable(4) %5)
  store ptr getelementptr inbounds nuw inrange(-16, 64) (i8, ptr @_ZTV11IntResource, i64 16), ptr %0, align 8, !tbaa !9
  %7 = getelementptr inbounds nuw i8, ptr %0, i64 56
  store i32 %3, ptr %7, align 8, !tbaa !51
  %8 = and i32 %3, 268435455
  %9 = or disjoint i32 %8, 1879048192
  %10 = getelementptr inbounds nuw i8, ptr %0, i64 12
  store i32 %9, ptr %10, align 4, !tbaa !20
  %11 = getelementptr inbounds nuw i8, ptr %0, i64 9
  store i8 1, ptr %11, align 1, !tbaa !17
  ret void
}